target datalayout = "e-m:e-p270:32:32-p271:32:32-p272:64:64-i64:64-i128:128-f80:128-n8:16:32:64-S128"
target triple = "x86_64-pc-linux-gnu"

%struct.PGNoticeHooks = type { ptr, ptr, ptr, ptr }
%struct.PGEvent = type { ptr, ptr, ptr, ptr, i8 }
%struct.pg_result = type { i32, i32, ptr, ptr, i32, i32, ptr, i32, [64 x i8], i32, %struct.PGNoticeHooks, ptr, i32, i32, ptr, ptr, ptr, [1 x i8], ptr, i32, i32, i64 }

; Function Attrs: nounwind uwtable
define ptr @PQresultInstanceData(ptr noundef %0, ptr noundef %1) #0 {
  %3 = alloca ptr, align 8
  %4 = alloca ptr, align 8
  %5 = alloca ptr, align 8
  %6 = alloca i32, align 4
  %7 = alloca i32, align 4
  store ptr %0, ptr %4, align 8
  store ptr %1, ptr %5, align 8
  call void @llvm.lifetime.start.p0(i64 4, ptr %6) #5
  %8 = load ptr, ptr %4, align 8
  %9 = icmp ne ptr %8, null
  br i1 %9, label %10, label %13

10:                                               ; preds = %2
  %11 = load ptr, ptr %5, align 8
  %12 = icmp ne ptr %11, null
  br i1 %12, label %14, label %13

13:                                               ; preds = %10, %2
  store ptr null, ptr %3, align 8
  store i32 1, ptr %7, align 4
  br label %46

14:                                               ; preds = %10
  store i32 0, ptr %6, align 4
  br label %15

15:                                               ; preds = %42, %14
  %16 = load i32, ptr %6, align 4
  %17 = load ptr, ptr %4, align 8
  %18 = getelementptr inbounds nuw %struct.pg_result, ptr %17, i32 0, i32 12
  %19 = load i32, ptr %18, align 8
  %20 = icmp slt i32 %16, %19
  br i1 %20, label %21, label %45

21:                                               ; preds = %15
  %22 = load ptr, ptr %4, align 8
  %23 = getelementptr inbounds nuw %struct.pg_result, ptr %22, i32 0, i32 11
  %24 = load ptr, ptr %23, align 8
  %25 = load i32, ptr %6, align 4
  %26 = sext i32 %25 to i64
  %27 = getelementptr inbounds %struct.PGEvent, ptr %24, i64 %26
  %28 = getelementptr inbounds nuw %struct.PGEvent, ptr %27, i32 0, i32 0
  %29 = load ptr, ptr %28, align 8
  %30 = load ptr, ptr %5, align 8
  %31 = icmp eq ptr %29, %30
  br i1 %31, label %32, label %41

32:                                               ; preds = %21
  %33 = load ptr, ptr %4, align 8
  %34 = getelementptr inbounds nuw %struct.pg_result, ptr %33, i32 0, i32 11
  %35 = load ptr, ptr %34, align 8
  %36 = load i32, ptr %6, align 4
  %37 = sext i32 %36 to i64
  %38 = getelementptr inbounds %struct.PGEvent, ptr %35, i64 %37
  %39 = getelementptr inbounds nuw %struct.PGEvent, ptr %38, i32 0, i32 3
  %40 = load ptr, ptr %39, align 8
  store ptr %40, ptr %3, align 8
  store i32 1, ptr %7, align 4
  br label %46

41:                                               ; preds = %21
  br label %42

42:                                               ; preds = %41
  %43 = load i32, ptr %6, align 4
  %44 = add i32 %43, 1
  store i32 %44, ptr %6, align 4
  br label %15, !llvm.loop !8

45:                                               ; preds = %15
  store ptr null, ptr %3, align 8
  store i32 1, ptr %7, align 4
  br label %46

46:                                               ; preds = %45, %32, %13
  call void @llvm.lifetime.end.p0(i64 4, ptr %6) #5
  %47 = load ptr, ptr %3, align 8
  ret ptr %47
}