; Function Attrs: nofree norecurse nosync nounwind memory(read, inaccessiblemem: none) uwtable
define ptr @PQresultInstanceData(ptr noundef readonly captures(address_is_null) %0, ptr noundef readnone captures(address) %1) local_unnamed_addr #7 {
  %3 = icmp ne ptr %0, null
  %4 = icmp ne ptr %1, null
  %or.cond = and i1 %3, %4
  br i1 %or.cond, label %.preheader, label %.loopexit

.preheader:                                       ; preds = %2
  %5 = getelementptr inbounds nuw i8, ptr %0, i64 152
  %6 = load i32, ptr %5, align 8
  %7 = icmp sgt i32 %6, 0
  br i1 %7, label %.lr.ph, label %.loopexit

.lr.ph:                                           ; preds = %.preheader
  %8 = getelementptr inbounds nuw i8, ptr %0, i64 144
  %9 = load ptr, ptr %8, align 8
  %wide.trip.count = zext nneg i32 %6 to i64
  br label %11

10:                                               ; preds = %11
  %indvars.iv.next = add nuw nsw i64 %indvars.iv, 1
  %exitcond.not = icmp eq i64 %indvars.iv.next, %wide.trip.count
  br i1 %exitcond.not, label %.loopexit, label %11, !llvm.loop !8

11:                                               ; preds = %.lr.ph, %10
  %indvars.iv = phi i64 [ 0, %.lr.ph ], [ %indvars.iv.next, %10 ]
  %12 = getelementptr inbounds nuw %struct.PGEvent, ptr %9, i64 %indvars.iv
  %13 = load ptr, ptr %12, align 8
  %14 = icmp eq ptr %13, %1
  br i1 %14, label %15, label %10

15:                                               ; preds = %11
  %16 = getelementptr inbounds nuw i8, ptr %12, i64 24
  %17 = load ptr, ptr %16, align 8
  br label %.loopexit

.loopexit:                                        ; preds = %10, %.preheader, %2, %15
  %.011 = phi ptr [ %17, %15 ], [ null, %2 ], [ null, %.preheader ], [ null, %10 ]
  ret ptr %.011
}